Certificate:
    Data:
        Version: 3 (0x2)
        Serial Number: 2 (0x2)
        Signature Algorithm: sha256WithRSAEncryption
        Issuer: C=CN, ST=Hubei, O=CC-ETH-CrossChain, OU=supervisor, CN=http://127.0.0.1:5001
        Validity
            Not Before: Mar 12 15:33:49 2024 GMT
            Not After : Mar 12 15:33:49 2025 GMT
        Subject: C=CN, ST=Hubei, O=CC-ETH-CrossChain, OU=relayer, CN=http://127.0.0.1:6001
        Subject Public Key Info:
            Public Key Algorithm: rsaEncryption
                RSA Public-Key: (2048 bit)
                Modulus:
                    00:c3:bf:d2:e3:da:0a:26:88:a4:6d:b2:27:66:0f:
                    78:db:15:49:57:a0:5a:12:dd:6b:99:8d:06:f9:96:
                    99:2d:4f:29:c0:30:2e:26:e0:d3:84:a4:3c:81:00:
                    3c:d1:74:fc:ba:3d:5c:7c:94:08:1a:26:13:67:f4:
                    c2:2f:7c:4c:11:03:9b:3d:9e:cd:52:03:a0:2f:0b:
                    82:ea:ed:3f:be:41:79:df:3c:cd:de:d6:b2:4b:4b:
                    66:fa:f8:3f:1a:18:4c:98:b6:58:f6:47:cc:b5:1e:
                    8e:df:c7:cc:bb:80:5e:b6:d2:fb:02:f7:53:1b:b4:
                    fe:25:9e:9b:b1:9a:03:4e:a2:20:06:2b:16:e7:1b:
                    0e:71:bc:b0:1b:15:7e:e3:97:7f:bb:2e:9e:07:c0:
                    a6:11:45:4e:a5:d2:d7:64:76:1b:4a:7c:1a:0a:58:
                    d4:78:f2:fc:f5:ef:cf:47:63:b2:80:34:e1:85:bf:
                    90:49:35:de:67:2d:ff:28:3e:72:44:06:8a:be:61:
                    c1:42:8f:a3:f4:cb:06:26:26:70:73:56:cb:3c:bc:
                    5f:06:ae:5c:03:62:f0:d5:29:56:ab:53:d9:fd:f4:
                    c8:31:fd:3c:d6:eb:87:21:89:cc:27:45:c0:9c:00:
                    6f:eb:33:0a:81:db:a0:0a:e4:d7:ab:5e:18:58:17:
                    02:59
                Exponent: 65537 (0x10001)
        X509v3 extensions:
            X509v3 Basic Constraints: 
                CA:FALSE
            Netscape Comment: 
                OpenSSL Generated Certificate
            X509v3 Subject Key Identifier: 
                E5:8D:B1:BF:95:87:47:E0:14:80:63:DB:B4:25:9C:18:F3:48:79:AA
            X509v3 Authority Key Identifier: 
                keyid:3C:6E:2A:C8:C7:8A:3B:93:1E:89:17:58:3F:D7:09:E0:A4:40:6F:FF

    Signature Algorithm: sha256WithRSAEncryption
         b7:a0:19:c4:16:8d:92:e5:3f:43:15:7f:48:c7:8e:d8:94:b4:
         f0:0c:ee:77:7f:d7:40:89:f4:a5:f5:9f:8d:8f:82:79:83:e2:
         22:1d:66:11:84:e9:78:98:40:ac:b6:79:69:6f:a2:38:d9:04:
         6e:db:a7:3c:be:fd:72:0b:b5:c0:1e:5a:07:96:ca:81:9c:9c:
         a7:6b:c9:ea:d0:60:07:b4:01:f8:e6:10:b6:fa:ed:bf:00:d1:
         47:82:6c:23:f0:81:fc:f7:ba:51:bb:c3:75:5a:84:b7:27:d8:
         64:2f:ca:bb:56:5c:e0:ec:15:43:4c:21:e8:c0:a6:d9:13:7c:
         5d:81:01:72:d7:b9:07:6e:75:94:55:67:99:6c:5f:56:1a:7d:
         25:10:01:ef:03:1b:a0:b8:18:03:b4:51:10:11:7c:44:ac:35:
         a2:e7:86:96:62:c9:77:7e:37:57:36:79:c4:97:64:64:6f:10:
         fb:8f:9e:ab:d7:92:39:e2:5f:16:fe:d0:e6:37:26:71:d6:b5:
         da:dc:a1:94:6d:fc:da:11:da:e3:e8:0c:84:eb:d6:c0:27:d3:
         00:86:c2:f7:d4:62:07:ef:8e:b1:d9:f8:af:71:12:5c:87:de:
         a8:53:30:5b:85:89:49:a5:18:83:2f:ca:7a:44:c4:88:6a:c9:
         82:49:21:a5
-----BEGIN CERTIFICATE-----
MIIDzzCCAregAwIBAgIBAjANBgkqhkiG9w0BAQsFADBuMQswCQYDVQQGEwJDTjEO
MAwGA1UECAwFSHViZWkxGjAYBgNVBAoMEUNDLUVUSC1Dcm9zc0NoYWluMRMwEQYD
VQQLDApzdXBlcnZpc29yMR4wHAYDVQQDDBVodHRwOi8vMTI3LjAuMC4xOjUwMDEw
HhcNMjQwMzEyMTUzMzQ5WhcNMjUwMzEyMTUzMzQ5WjBrMQswCQYDVQQGEwJDTjEO
MAwGA1UECAwFSHViZWkxGjAYBgNVBAoMEUNDLUVUSC1Dcm9zc0NoYWluMRAwDgYD
VQQLDAdyZWxheWVyMR4wHAYDVQQDDBVodHRwOi8vMTI3LjAuMC4xOjYwMDEwggEi
MA0GCSqGSIb3DQEBAQUAA4IBDwAwggEKAoIBAQDDv9Lj2gomiKRtsidmD3jbFUlX
oFoS3WuZjQb5lpktTynAMC4m4NOEpDyBADzRdPy6PVx8lAgaJhNn9MIvfEwRA5s9
ns1SA6AvC4Lq7T++QXnfPM3e1rJLS2b6+D8aGEyYtlj2R8y1Ho7fx8y7gF620vsC
91MbtP4lnpuxmgNOoiAGKxbnGw5xvLAbFX7jl3+7Lp4HwKYRRU6l0tdkdhtKfBoK
WNR48vz1789HY7KANOGFv5BJNd5nLf8oPnJEBoq+YcFCj6P0ywYmJnBzVss8vF8G
rlwDYvDVKVarU9n99Mgx/TzW64chicwnRcCcAG/rMwqB26AK5NerXhhYFwJZAgMB
AAGjezB5MAkGA1UdEwQCMAAwLAYJYIZIAYb4QgENBB8WHU9wZW5TU0wgR2VuZXJh
dGVkIENlcnRpZmljYXRlMB0GA1UdDgQWBBTljbG/lYdH4BSAY9u0JZwY80h5qjAf
BgNVHSMEGDAWgBQ8birIx4o7kx6JF1g/1wngpEBv/zANBgkqhkiG9w0BAQsFAAOC
AQEAt6AZxBaNkuU/QxV/SMeO2JS08Azud3/XQIn0pfWfjY+CeYPiIh1mEYTpeJhA
rLZ5aW+iONkEbtunPL79cgu1wB5aB5bKgZycp2vJ6tBgB7QB+OYQtvrtvwDRR4Js
I/CB/Pe6UbvDdVqEtyfYZC/Ku1Zc4OwVQ0wh6MCm2RN8XYEBcte5B251lFVnmWxf
Vhp9JRAB7wMboLgYA7RREBF8RKw1oueGlmLJd343VzZ5xJdkZG8Q+4+eq9eSOeJf
Fv7Q5jcmcda12tyhlG382hHa4+gMhOvWwCfTAIbC99RiB++Osdn4r3ESXIfeqFMw
W4WJSaUYgy/KekTEiGrJgkkhpQ==
-----END CERTIFICATE-----
