Certificate:
    Data:
        Version: 3 (0x2)
        Serial Number: 1 (0x1)
        Signature Algorithm: sha256WithRSAEncryption
        Issuer: C=CN, ST=Hubei, O=CC-ETH-CrossChain, OU=supervisor, CN=http://127.0.0.1:5001
        Validity
            Not Before: Mar 12 15:33:43 2024 GMT
            Not After : Mar 12 15:33:43 2025 GMT
        Subject: C=CN, ST=Hubei, O=CC-ETH-CrossChain, OU=supervisor, CN=http://127.0.0.1:5001
        Subject Public Key Info:
            Public Key Algorithm: rsaEncryption
                RSA Public-Key: (2048 bit)
                Modulus:
                    00:c3:24:0d:1a:6f:f7:ad:fb:c7:e5:63:0d:31:74:
                    b2:b6:2a:8e:d8:1c:f3:fe:5b:6d:4f:77:6a:ec:d9:
                    0a:eb:02:4e:6e:99:c2:a1:21:e9:8f:10:4d:93:75:
                    49:e7:72:e1:0f:a4:d5:84:9e:77:98:7f:cc:12:ef:
                    ef:81:cc:7c:31:9b:0c:56:e2:60:43:9e:74:a0:99:
                    ef:40:3d:7b:fe:e0:64:88:b0:cb:62:fe:11:ad:d0:
                    e2:1d:ad:3d:47:55:37:9a:ce:c0:78:93:d4:fa:7b:
                    a2:5d:bc:c1:a9:b2:72:73:e6:3a:9a:49:64:78:c5:
                    a1:d3:77:5e:21:b6:1b:f4:69:99:f0:79:40:3a:59:
                    cd:c5:32:da:02:a7:d8:14:c0:53:b4:d6:cf:93:f8:
                    94:b8:db:44:21:0c:03:f1:c7:79:03:aa:d9:31:4d:
                    31:d0:63:f3:45:d5:4e:cd:92:10:4c:6f:74:f1:eb:
                    ea:91:87:ae:33:fa:19:66:92:a8:69:1f:7d:b7:1a:
                    7d:0d:90:32:0b:29:34:67:77:83:98:b1:ff:4a:9e:
                    59:f6:c6:32:95:34:f6:1f:9f:98:05:bc:5f:0c:af:
                    f1:21:41:47:50:14:85:25:a3:1a:3b:4a:40:cb:cb:
                    89:98:51:e0:df:07:ef:15:a7:aa:4f:8f:90:3d:b5:
                    c9:73
                Exponent: 65537 (0x10001)
        X509v3 extensions:
            X509v3 Basic Constraints: 
                CA:FALSE
            Netscape Comment: 
                OpenSSL Generated Certificate
            X509v3 Subject Key Identifier: 
                3C:6E:2A:C8:C7:8A:3B:93:1E:89:17:58:3F:D7:09:E0:A4:40:6F:FF
            X509v3 Authority Key Identifier: 
                keyid:3C:6E:2A:C8:C7:8A:3B:93:1E:89:17:58:3F:D7:09:E0:A4:40:6F:FF

    Signature Algorithm: sha256WithRSAEncryption
         6e:17:01:ef:29:2d:d5:bf:5a:d8:3c:c2:57:07:66:40:ba:b2:
         ae:ee:3c:6c:22:d3:ad:07:ba:24:c0:be:d0:96:2a:f6:8a:9c:
         b8:5e:6a:2a:a2:26:1b:d8:3c:ad:42:18:ec:08:3c:06:ab:54:
         f6:f8:f1:cd:eb:f4:cf:ca:11:3f:b9:9d:da:ce:82:fb:d1:19:
         fb:ec:0d:40:bc:2f:5f:51:c8:79:da:2b:eb:7a:4c:cd:89:bd:
         cd:d4:80:50:e6:26:70:81:08:a8:eb:1a:e6:5e:22:18:da:5f:
         9b:76:e4:45:7c:4f:33:a2:38:2f:97:8e:e6:8e:32:f8:2e:46:
         57:d4:38:24:48:05:b0:f3:39:66:69:bf:ea:49:e3:0b:59:6e:
         5d:ed:e7:76:53:c2:63:82:4e:78:eb:08:1b:c5:8f:c5:30:92:
         53:20:4d:c2:e7:a1:11:69:9a:85:10:05:e3:51:51:1d:a3:ae:
         25:95:10:1b:52:cd:fd:f4:87:eb:dd:d6:a3:1c:3c:fa:f2:09:
         ff:c6:ca:50:ae:05:08:06:25:91:49:f0:db:3e:f4:2a:d6:52:
         a7:58:3e:c6:e2:2a:fa:52:6c:4e:30:b6:54:31:d2:e3:78:b1:
         a9:e4:33:c5:87:06:30:19:19:b9:87:92:d0:06:4f:6a:c5:d9:
         dc:6c:25:01
-----BEGIN CERTIFICATE-----
MIID0jCCArqgAwIBAgIBATANBgkqhkiG9w0BAQsFADBuMQswCQYDVQQGEwJDTjEO
MAwGA1UECAwFSHViZWkxGjAYBgNVBAoMEUNDLUVUSC1Dcm9zc0NoYWluMRMwEQYD
VQQLDApzdXBlcnZpc29yMR4wHAYDVQQDDBVodHRwOi8vMTI3LjAuMC4xOjUwMDEw
HhcNMjQwMzEyMTUzMzQzWhcNMjUwMzEyMTUzMzQzWjBuMQswCQYDVQQGEwJDTjEO
MAwGA1UECAwFSHViZWkxGjAYBgNVBAoMEUNDLUVUSC1Dcm9zc0NoYWluMRMwEQYD
VQQLDApzdXBlcnZpc29yMR4wHAYDVQQDDBVodHRwOi8vMTI3LjAuMC4xOjUwMDEw
ggEiMA0GCSqGSIb3DQEBAQUAA4IBDwAwggEKAoIBAQDDJA0ab/et+8flYw0xdLK2
Ko7YHPP+W21Pd2rs2QrrAk5umcKhIemPEE2TdUnncuEPpNWEnneYf8wS7++BzHwx
mwxW4mBDnnSgme9APXv+4GSIsMti/hGt0OIdrT1HVTeazsB4k9T6e6JdvMGpsnJz
5jqaSWR4xaHTd14hthv0aZnweUA6Wc3FMtoCp9gUwFO01s+T+JS420QhDAPxx3kD
qtkxTTHQY/NF1U7NkhBMb3Tx6+qRh64z+hlmkqhpH323Gn0NkDILKTRnd4OYsf9K
nln2xjKVNPYfn5gFvF8Mr/EhQUdQFIUloxo7SkDLy4mYUeDfB+8Vp6pPj5A9tclz
AgMBAAGjezB5MAkGA1UdEwQCMAAwLAYJYIZIAYb4QgENBB8WHU9wZW5TU0wgR2Vu
ZXJhdGVkIENlcnRpZmljYXRlMB0GA1UdDgQWBBQ8birIx4o7kx6JF1g/1wngpEBv
/zAfBgNVHSMEGDAWgBQ8birIx4o7kx6JF1g/1wngpEBv/zANBgkqhkiG9w0BAQsF
AAOCAQEAbhcB7ykt1b9a2DzCVwdmQLqyru48bCLTrQe6JMC+0JYq9oqcuF5qKqIm
G9g8rUIY7Ag8BqtU9vjxzev0z8oRP7md2s6C+9EZ++wNQLwvX1HIedor63pMzYm9
zdSAUOYmcIEIqOsa5l4iGNpfm3bkRXxPM6I4L5eO5o4y+C5GV9Q4JEgFsPM5Zmm/
6knjC1luXe3ndlPCY4JOeOsIG8WPxTCSUyBNwuehEWmahRAF41FRHaOuJZUQG1LN
/fSH693Woxw8+vIJ/8bKUK4FCAYlkUnw2z70KtZSp1g+xuIq+lJsTjC2VDHS43ix
qeQzxYcGMBkZuYeS0AZPasXZ3GwlAQ==
-----END CERTIFICATE-----
