Certificate:
    Data:
        Version: 3 (0x2)
        Serial Number: 1 (0x1)
        Signature Algorithm: sha256WithRSAEncryption
        Issuer: C=CN, ST=Hubei, O=CC-ETH-CrossChain, OU=supervisor, CN=http://127.0.0.1:5001
        Validity
            Not Before: Mar 11 08:56:47 2024 GMT
            Not After : Mar 11 08:56:47 2025 GMT
        Subject: C=CN, ST=Hubei, O=CC-ETH-CrossChain, OU=supervisor, CN=http://127.0.0.1:5001
        Subject Public Key Info:
            Public Key Algorithm: rsaEncryption
                RSA Public-Key: (2048 bit)
                Modulus:
                    00:e6:a0:4c:0b:13:25:3f:da:f4:25:25:21:99:a7:
                    dd:b5:b8:62:d2:f2:7b:9b:43:0d:82:c6:5b:2c:99:
                    f4:62:9d:9e:9c:09:33:f1:84:a2:6e:d9:af:5f:bb:
                    2d:e7:eb:22:f2:ca:a2:59:ff:27:99:2e:61:7c:7a:
                    25:ba:80:06:4d:9f:b8:4e:72:52:28:90:e3:6e:41:
                    15:54:10:d6:71:98:c9:91:ab:99:48:78:d9:0c:16:
                    76:25:e3:8f:92:17:1b:2b:cd:2a:8a:bc:64:35:b1:
                    ec:35:42:35:85:9c:ed:ff:79:3f:c9:33:38:db:4e:
                    b7:3a:9c:93:31:55:b7:1a:96:3b:87:a9:35:d9:21:
                    b8:fa:0f:4d:c8:55:22:ed:ca:ce:ab:ad:f4:2e:f4:
                    41:45:05:41:d3:23:4c:2c:fc:6e:a7:c6:7d:10:85:
                    be:f7:37:d2:41:36:1e:92:be:c3:50:b2:89:e5:89:
                    c0:70:fd:f2:fc:52:1e:ef:f6:67:05:e9:d2:95:a6:
                    f9:19:f0:34:13:9c:f7:e9:97:d2:d9:ce:51:e2:dd:
                    c9:86:fa:12:a3:b1:fc:e0:ec:35:e5:65:d1:db:e9:
                    96:2f:d5:06:ef:28:61:79:12:e8:0e:38:e1:ae:a5:
                    b4:c3:c6:d7:f8:b1:4f:d5:24:31:0a:c7:7d:61:05:
                    72:61
                Exponent: 65537 (0x10001)
        X509v3 extensions:
            X509v3 Basic Constraints: 
                CA:FALSE
            Netscape Comment: 
                OpenSSL Generated Certificate
            X509v3 Subject Key Identifier: 
                3E:B4:80:77:2D:D3:E4:5D:26:E7:E2:58:AA:2E:FA:ED:B3:D1:CC:65
            X509v3 Authority Key Identifier: 
                keyid:3E:B4:80:77:2D:D3:E4:5D:26:E7:E2:58:AA:2E:FA:ED:B3:D1:CC:65

    Signature Algorithm: sha256WithRSAEncryption
         db:68:35:7c:00:7b:01:60:c1:2e:5a:2b:14:a9:e1:a1:bc:b2:
         c3:d2:9b:77:40:3c:fe:16:81:46:d7:44:c4:a5:05:b8:22:4d:
         d9:44:b7:f9:32:30:d2:3e:78:1d:d1:fb:65:bd:ea:5e:13:24:
         e8:48:a1:62:de:2d:54:50:c4:3d:67:42:fe:27:4f:1a:d2:9a:
         6b:4a:78:2e:43:97:97:9e:54:06:07:a5:81:7b:fd:08:30:84:
         41:da:35:a7:af:05:a0:00:70:f1:e5:de:bb:d4:ac:1f:6a:19:
         55:3d:d3:90:c6:d5:2f:35:8f:8a:22:3d:9f:e9:1a:38:b3:db:
         02:8f:d3:36:5c:6c:19:ff:f1:fd:2d:ca:5c:e7:b0:62:92:5b:
         6a:e5:c5:05:8b:ae:76:78:d5:7d:68:27:88:0d:8b:20:02:5d:
         db:74:20:a7:36:af:20:fd:ea:df:59:6c:09:7b:a9:a8:ad:07:
         80:aa:5f:35:3d:4b:2c:ed:50:6b:82:81:c2:fe:db:06:99:67:
         53:3c:19:ec:a4:b5:fa:cf:1b:5d:aa:67:3f:30:83:05:57:28:
         3a:14:b0:4d:77:11:0a:5f:a7:dc:5f:a6:92:b0:39:f0:f3:01:
         1a:e1:7c:33:6c:7f:a0:60:1a:97:83:5e:10:77:72:94:0a:47:
         01:35:38:86
-----BEGIN CERTIFICATE-----
MIID0jCCArqgAwIBAgIBATANBgkqhkiG9w0BAQsFADBuMQswCQYDVQQGEwJDTjEO
MAwGA1UECAwFSHViZWkxGjAYBgNVBAoMEUNDLUVUSC1Dcm9zc0NoYWluMRMwEQYD
VQQLDApzdXBlcnZpc29yMR4wHAYDVQQDDBVodHRwOi8vMTI3LjAuMC4xOjUwMDEw
HhcNMjQwMzExMDg1NjQ3WhcNMjUwMzExMDg1NjQ3WjBuMQswCQYDVQQGEwJDTjEO
MAwGA1UECAwFSHViZWkxGjAYBgNVBAoMEUNDLUVUSC1Dcm9zc0NoYWluMRMwEQYD
VQQLDApzdXBlcnZpc29yMR4wHAYDVQQDDBVodHRwOi8vMTI3LjAuMC4xOjUwMDEw
ggEiMA0GCSqGSIb3DQEBAQUAA4IBDwAwggEKAoIBAQDmoEwLEyU/2vQlJSGZp921
uGLS8nubQw2CxlssmfRinZ6cCTPxhKJu2a9fuy3n6yLyyqJZ/yeZLmF8eiW6gAZN
n7hOclIokONuQRVUENZxmMmRq5lIeNkMFnYl44+SFxsrzSqKvGQ1sew1QjWFnO3/
eT/JMzjbTrc6nJMxVbcaljuHqTXZIbj6D03IVSLtys6rrfQu9EFFBUHTI0ws/G6n
xn0Qhb73N9JBNh6SvsNQsonlicBw/fL8Uh7v9mcF6dKVpvkZ8DQTnPfpl9LZzlHi
3cmG+hKjsfzg7DXlZdHb6ZYv1QbvKGF5EugOOOGupbTDxtf4sU/VJDEKx31hBXJh
AgMBAAGjezB5MAkGA1UdEwQCMAAwLAYJYIZIAYb4QgENBB8WHU9wZW5TU0wgR2Vu
ZXJhdGVkIENlcnRpZmljYXRlMB0GA1UdDgQWBBQ+tIB3LdPkXSbn4liqLvrts9HM
ZTAfBgNVHSMEGDAWgBQ+tIB3LdPkXSbn4liqLvrts9HMZTANBgkqhkiG9w0BAQsF
AAOCAQEA22g1fAB7AWDBLlorFKnhobyyw9Kbd0A8/haBRtdExKUFuCJN2US3+TIw
0j54HdH7Zb3qXhMk6EihYt4tVFDEPWdC/idPGtKaa0p4LkOXl55UBgelgXv9CDCE
Qdo1p68FoABw8eXeu9SsH2oZVT3TkMbVLzWPiiI9n+kaOLPbAo/TNlxsGf/x/S3K
XOewYpJbauXFBYuudnjVfWgniA2LIAJd23QgpzavIP3q31lsCXupqK0HgKpfNT1L
LO1Qa4KBwv7bBplnUzwZ7KS1+s8bXapnPzCDBVcoOhSwTXcRCl+n3F+mkrA58PMB
GuF8M2x/oGAal4NeEHdylApHATU4hg==
-----END CERTIFICATE-----
