Certificate:
    Data:
        Version: 3 (0x2)
        Serial Number: 3 (0x3)
        Signature Algorithm: sha256WithRSAEncryption
        Issuer: C=CN, ST=Hubei, O=CC-ETH-CrossChain, OU=supervisor, CN=http://127.0.0.1:5001
        Validity
            Not Before: Mar 12 15:33:53 2024 GMT
            Not After : Mar 12 15:33:53 2025 GMT
        Subject: C=CN, ST=Hubei, O=CC-ETH-CrossChain, OU=ganache01, CN=4fea6d71a1dc19c29d86818ba6f2fa08d9884f15bf2d25e7fbf86a52bb00a98f
        Subject Public Key Info:
            Public Key Algorithm: rsaEncryption
                RSA Public-Key: (2048 bit)
                Modulus:
                    00:c3:bf:d2:e3:da:0a:26:88:a4:6d:b2:27:66:0f:
                    78:db:15:49:57:a0:5a:12:dd:6b:99:8d:06:f9:96:
                    99:2d:4f:29:c0:30:2e:26:e0:d3:84:a4:3c:81:00:
                    3c:d1:74:fc:ba:3d:5c:7c:94:08:1a:26:13:67:f4:
                    c2:2f:7c:4c:11:03:9b:3d:9e:cd:52:03:a0:2f:0b:
                    82:ea:ed:3f:be:41:79:df:3c:cd:de:d6:b2:4b:4b:
                    66:fa:f8:3f:1a:18:4c:98:b6:58:f6:47:cc:b5:1e:
                    8e:df:c7:cc:bb:80:5e:b6:d2:fb:02:f7:53:1b:b4:
                    fe:25:9e:9b:b1:9a:03:4e:a2:20:06:2b:16:e7:1b:
                    0e:71:bc:b0:1b:15:7e:e3:97:7f:bb:2e:9e:07:c0:
                    a6:11:45:4e:a5:d2:d7:64:76:1b:4a:7c:1a:0a:58:
                    d4:78:f2:fc:f5:ef:cf:47:63:b2:80:34:e1:85:bf:
                    90:49:35:de:67:2d:ff:28:3e:72:44:06:8a:be:61:
                    c1:42:8f:a3:f4:cb:06:26:26:70:73:56:cb:3c:bc:
                    5f:06:ae:5c:03:62:f0:d5:29:56:ab:53:d9:fd:f4:
                    c8:31:fd:3c:d6:eb:87:21:89:cc:27:45:c0:9c:00:
                    6f:eb:33:0a:81:db:a0:0a:e4:d7:ab:5e:18:58:17:
                    02:59
                Exponent: 65537 (0x10001)
        X509v3 extensions:
            X509v3 Basic Constraints: 
                CA:FALSE
            Netscape Comment: 
                OpenSSL Generated Certificate
            X509v3 Subject Key Identifier: 
                E5:8D:B1:BF:95:87:47:E0:14:80:63:DB:B4:25:9C:18:F3:48:79:AA
            X509v3 Authority Key Identifier: 
                keyid:3C:6E:2A:C8:C7:8A:3B:93:1E:89:17:58:3F:D7:09:E0:A4:40:6F:FF

    Signature Algorithm: sha256WithRSAEncryption
         82:45:11:72:e2:1d:a2:23:ce:ce:3a:30:74:ae:f5:53:67:54:
         be:26:c1:eb:f3:ba:80:7a:31:a4:a2:48:1a:f3:bc:a9:83:15:
         23:26:47:1d:7a:1a:1b:59:13:df:cc:9e:98:30:26:05:36:e4:
         55:de:21:a4:df:38:19:16:67:58:ce:55:db:fb:44:fe:f9:b6:
         92:5b:ae:a8:bc:09:08:02:c9:75:c4:d3:7a:dc:fb:3c:1d:87:
         bf:58:f5:8a:f8:62:5b:5f:33:a8:37:70:4d:f8:a8:c9:f6:86:
         48:e7:05:08:4c:62:4e:66:62:d8:a6:b3:61:99:59:0b:40:19:
         b9:27:e5:fc:65:1a:0b:ec:b4:35:a5:03:6b:cf:e6:85:cd:bb:
         9d:e6:e9:a0:cf:28:96:dd:f4:0f:5f:9d:9f:20:0e:2e:ac:57:
         11:7e:b6:3f:5c:49:f9:2f:c5:71:54:ae:1a:aa:1d:9c:5e:bd:
         7a:08:2f:e6:36:bf:a3:48:23:07:d8:20:7b:6f:09:34:09:a2:
         2c:86:51:02:79:0c:90:ab:9f:34:11:e3:67:f0:9d:1e:70:e9:
         3b:2a:2f:c0:cb:76:d4:e5:95:47:13:1f:1f:70:28:df:c6:3e:
         62:70:90:01:eb:0f:e5:4a:17:59:12:d1:d1:3b:ef:ab:2a:9d:
         74:b9:a5:b8
-----BEGIN CERTIFICATE-----
MIID/TCCAuWgAwIBAgIBAzANBgkqhkiG9w0BAQsFADBuMQswCQYDVQQGEwJDTjEO
MAwGA1UECAwFSHViZWkxGjAYBgNVBAoMEUNDLUVUSC1Dcm9zc0NoYWluMRMwEQYD
VQQLDApzdXBlcnZpc29yMR4wHAYDVQQDDBVodHRwOi8vMTI3LjAuMC4xOjUwMDEw
HhcNMjQwMzEyMTUzMzUzWhcNMjUwMzEyMTUzMzUzWjCBmDELMAkGA1UEBhMCQ04x
DjAMBgNVBAgMBUh1YmVpMRowGAYDVQQKDBFDQy1FVEgtQ3Jvc3NDaGFpbjESMBAG
A1UECwwJZ2FuYWNoZTAxMUkwRwYDVQQDDEA0ZmVhNmQ3MWExZGMxOWMyOWQ4Njgx
OGJhNmYyZmEwOGQ5ODg0ZjE1YmYyZDI1ZTdmYmY4NmE1MmJiMDBhOThmMIIBIjAN
BgkqhkiG9w0BAQEFAAOCAQ8AMIIBCgKCAQEAw7/S49oKJoikbbInZg942xVJV6Ba
Et1rmY0G+ZaZLU8pwDAuJuDThKQ8gQA80XT8uj1cfJQIGiYTZ/TCL3xMEQObPZ7N
UgOgLwuC6u0/vkF53zzN3tayS0tm+vg/GhhMmLZY9kfMtR6O38fMu4BettL7AvdT
G7T+JZ6bsZoDTqIgBisW5xsOcbywGxV+45d/uy6eB8CmEUVOpdLXZHYbSnwaCljU
ePL89e/PR2OygDThhb+QSTXeZy3/KD5yRAaKvmHBQo+j9MsGJiZwc1bLPLxfBq5c
A2Lw1SlWq1PZ/fTIMf081uuHIYnMJ0XAnABv6zMKgdugCuTXq14YWBcCWQIDAQAB
o3sweTAJBgNVHRMEAjAAMCwGCWCGSAGG+EIBDQQfFh1PcGVuU1NMIEdlbmVyYXRl
ZCBDZXJ0aWZpY2F0ZTAdBgNVHQ4EFgQU5Y2xv5WHR+AUgGPbtCWcGPNIeaowHwYD
VR0jBBgwFoAUPG4qyMeKO5MeiRdYP9cJ4KRAb/8wDQYJKoZIhvcNAQELBQADggEB
AIJFEXLiHaIjzs46MHSu9VNnVL4mwevzuoB6MaSiSBrzvKmDFSMmRx16GhtZE9/M
npgwJgU25FXeIaTfOBkWZ1jOVdv7RP75tpJbrqi8CQgCyXXE03rc+zwdh79Y9Yr4
YltfM6g3cE34qMn2hkjnBQhMYk5mYtims2GZWQtAGbkn5fxlGgvstDWlA2vP5oXN
u53m6aDPKJbd9A9fnZ8gDi6sVxF+tj9cSfkvxXFUrhqqHZxevXoIL+Y2v6NIIwfY
IHtvCTQJoiyGUQJ5DJCrnzQR42fwnR5w6TsqL8DLdtTllUcTHx9wKN/GPmJwkAHr
D+VKF1kS0dE776sqnXS5pbg=
-----END CERTIFICATE-----
