Certificate:
    Data:
        Version: 3 (0x2)
        Serial Number: 2 (0x2)
        Signature Algorithm: sha256WithRSAEncryption
        Issuer: C=CN, ST=Hubei, O=CC-ETH-CrossChain, OU=supervisor, CN=http://127.0.0.1:5001
        Validity
            Not Before: Mar 11 08:56:51 2024 GMT
            Not After : Mar 11 08:56:51 2025 GMT
        Subject: C=CN, ST=Hubei, O=CC-ETH-CrossChain, OU=relayer, CN=http://127.0.0.1:6001
        Subject Public Key Info:
            Public Key Algorithm: rsaEncryption
                RSA Public-Key: (2048 bit)
                Modulus:
                    00:cd:e5:03:70:0c:63:5e:76:e5:f7:38:7b:b5:48:
                    2e:b9:22:4e:b5:94:20:da:6d:cd:35:52:0f:6a:18:
                    13:f9:b6:2f:38:e8:00:9b:e4:01:4a:68:01:c8:54:
                    7b:ab:99:c9:c7:c3:dd:10:c7:30:37:89:e3:72:17:
                    c4:df:15:83:22:4e:10:89:44:d5:c1:93:64:a0:e1:
                    cc:b8:6e:2c:cb:5e:09:17:28:d9:9b:63:1b:7b:41:
                    4a:5d:9f:c0:71:1e:77:54:12:52:c8:31:dc:e3:01:
                    74:be:5f:de:6b:7f:cd:b4:94:5e:a0:c7:63:c2:95:
                    db:5d:1d:55:3b:5b:35:34:7f:90:f5:1d:9f:ee:09:
                    18:00:13:d9:c3:5a:5b:61:5c:b8:fb:03:80:20:73:
                    50:ac:6a:42:68:e9:03:19:8a:d4:30:8d:97:39:25:
                    d6:7c:e0:51:2d:a3:1d:f4:f1:e2:fa:5a:4b:9d:0b:
                    a1:9f:6e:29:21:b0:bd:01:3e:62:24:5c:4e:f9:af:
                    a5:78:c2:2d:d3:a7:74:e1:4f:34:d4:82:09:c8:7c:
                    66:f3:13:64:6d:18:b7:7a:30:28:9e:a7:c1:ce:f4:
                    77:a1:dc:db:c7:f0:b3:9d:09:98:11:7f:94:eb:20:
                    c1:25:ca:c8:1e:1d:45:e8:4f:b3:70:45:fc:90:e2:
                    9b:af
                Exponent: 65537 (0x10001)
        X509v3 extensions:
            X509v3 Basic Constraints: 
                CA:FALSE
            Netscape Comment: 
                OpenSSL Generated Certificate
            X509v3 Subject Key Identifier: 
                1D:5B:6B:D8:26:84:CD:36:C7:7E:84:EA:55:FD:F3:8B:46:42:BA:95
            X509v3 Authority Key Identifier: 
                keyid:3E:B4:80:77:2D:D3:E4:5D:26:E7:E2:58:AA:2E:FA:ED:B3:D1:CC:65

    Signature Algorithm: sha256WithRSAEncryption
         47:b5:07:a0:9d:4c:1e:8d:00:0d:f0:e3:d8:19:78:d2:64:70:
         a4:2b:d0:05:4a:1d:8a:6e:1d:b4:be:95:c3:95:28:7b:fd:e2:
         61:21:a1:45:62:c3:c1:1d:fe:6e:31:aa:d4:ab:0e:42:52:20:
         fa:1d:02:ce:a7:83:bb:49:99:13:bf:2a:c1:20:d4:9d:8a:15:
         af:3a:49:99:8f:53:ae:49:6e:fd:79:67:cd:af:ff:29:cc:0c:
         b1:c3:98:3d:fd:dd:bd:29:cd:2b:4d:65:ef:b5:ec:e8:70:f1:
         5a:f8:44:11:95:58:88:63:89:f1:1c:3a:e4:86:4d:02:e3:61:
         d2:e0:e0:c5:cd:a4:af:d2:3e:a0:4a:ed:da:44:70:83:c9:55:
         14:5e:c8:21:6d:0d:8f:43:a6:5e:36:aa:34:76:fe:90:5b:8a:
         fb:7a:76:92:53:2c:be:dd:ab:b9:a9:e1:0b:ee:5a:25:1b:6a:
         3f:f3:39:55:96:4f:75:bf:a3:c3:34:d6:3d:ab:17:2f:b3:cd:
         09:2d:a5:99:14:69:44:8d:0b:e2:8e:8f:2b:64:18:a7:86:26:
         68:f7:6f:47:24:31:c9:5b:11:72:72:18:d0:49:bd:a2:f2:cd:
         8f:c6:a9:53:3c:ed:1a:d0:34:8a:36:ac:c9:b4:df:11:85:0e:
         cf:0f:b9:d7
-----BEGIN CERTIFICATE-----
MIIDzzCCAregAwIBAgIBAjANBgkqhkiG9w0BAQsFADBuMQswCQYDVQQGEwJDTjEO
MAwGA1UECAwFSHViZWkxGjAYBgNVBAoMEUNDLUVUSC1Dcm9zc0NoYWluMRMwEQYD
VQQLDApzdXBlcnZpc29yMR4wHAYDVQQDDBVodHRwOi8vMTI3LjAuMC4xOjUwMDEw
HhcNMjQwMzExMDg1NjUxWhcNMjUwMzExMDg1NjUxWjBrMQswCQYDVQQGEwJDTjEO
MAwGA1UECAwFSHViZWkxGjAYBgNVBAoMEUNDLUVUSC1Dcm9zc0NoYWluMRAwDgYD
VQQLDAdyZWxheWVyMR4wHAYDVQQDDBVodHRwOi8vMTI3LjAuMC4xOjYwMDEwggEi
MA0GCSqGSIb3DQEBAQUAA4IBDwAwggEKAoIBAQDN5QNwDGNeduX3OHu1SC65Ik61
lCDabc01Ug9qGBP5ti846ACb5AFKaAHIVHurmcnHw90QxzA3ieNyF8TfFYMiThCJ
RNXBk2Sg4cy4bizLXgkXKNmbYxt7QUpdn8BxHndUElLIMdzjAXS+X95rf820lF6g
x2PCldtdHVU7WzU0f5D1HZ/uCRgAE9nDWlthXLj7A4Agc1CsakJo6QMZitQwjZc5
JdZ84FEtox308eL6WkudC6GfbikhsL0BPmIkXE75r6V4wi3Tp3ThTzTUggnIfGbz
E2RtGLd6MCiep8HO9Heh3NvH8LOdCZgRf5TrIMElysgeHUXoT7NwRfyQ4puvAgMB
AAGjezB5MAkGA1UdEwQCMAAwLAYJYIZIAYb4QgENBB8WHU9wZW5TU0wgR2VuZXJh
dGVkIENlcnRpZmljYXRlMB0GA1UdDgQWBBQdW2vYJoTNNsd+hOpV/fOLRkK6lTAf
BgNVHSMEGDAWgBQ+tIB3LdPkXSbn4liqLvrts9HMZTANBgkqhkiG9w0BAQsFAAOC
AQEAR7UHoJ1MHo0ADfDj2Bl40mRwpCvQBUodim4dtL6Vw5Uoe/3iYSGhRWLDwR3+
bjGq1KsOQlIg+h0CzqeDu0mZE78qwSDUnYoVrzpJmY9Trklu/Xlnza//KcwMscOY
Pf3dvSnNK01l77Xs6HDxWvhEEZVYiGOJ8Rw65IZNAuNh0uDgxc2kr9I+oErt2kRw
g8lVFF7IIW0Nj0OmXjaqNHb+kFuK+3p2klMsvt2ruanhC+5aJRtqP/M5VZZPdb+j
wzTWPasXL7PNCS2lmRRpRI0L4o6PK2QYp4YmaPdvRyQxyVsRcnIY0Em9ovLNj8ap
UzztGtA0ijasybTfEYUOzw+51w==
-----END CERTIFICATE-----
